target datalayout = "e-m:e-p270:32:32-p271:32:32-p272:64:64-i64:64-i128:128-f80:128-n8:16:32:64-S128"
target triple = "x86_64-pc-linux-gnu"

%struct.HeapTupleData = type { i32, %struct.ItemPointerData, i32, ptr }
%struct.ItemPointerData = type { %struct.BlockIdData, i16 }
%struct.BlockIdData = type { i16, i16 }
%struct.HeapTupleHeaderData = type { %union.anon, %struct.ItemPointerData, i16, i16, i8, [0 x i8] }
%union.anon = type { %struct.HeapTupleFields }
%struct.HeapTupleFields = type { i32, i32, %union.anon.0 }
%union.anon.0 = type { i32 }
%struct.nameData = type { [64 x i8] }
%struct.FormData_pg_type = type { i32, %struct.nameData, i32, i32, i16, i8, i8, i8, i8, i8, i8, i32, i32, i32, i32, i32, i32, i32, i32, i32, i32, i32, i8, i8, i8, i32, i32, i32, i32 }

; Function Attrs: inlinehint nounwind uwtable
define internal ptr @GETSTRUCT(ptr noundef %0) #2 {
  %2 = alloca ptr, align 8
  store ptr %0, ptr %2, align 8
  %3 = load ptr, ptr %2, align 8
  %4 = getelementptr inbounds nuw %struct.HeapTupleData, ptr %3, i32 0, i32 3
  %5 = load ptr, ptr %4, align 8
  %6 = load ptr, ptr %2, align 8
  %7 = getelementptr inbounds nuw %struct.HeapTupleData, ptr %6, i32 0, i32 3
  %8 = load ptr, ptr %7, align 8
  %9 = getelementptr inbounds nuw %struct.HeapTupleHeaderData, ptr %8, i32 0, i32 4
  %10 = load i8, ptr %9, align 2
  %11 = zext i8 %10 to i32
  %12 = sext i32 %11 to i64
  %13 = getelementptr inbounds i8, ptr %5, i64 %12
  ret ptr %13
}

; Function Attrs: inlinehint nounwind uwtable
define internal i64 @ObjectIdGetDatum(i32 noundef %0) #2 {
  %2 = alloca i32, align 4
  store i32 %0, ptr %2, align 4
  %3 = load i32, ptr %2, align 4
  %4 = zext i32 %3 to i64
  ret i64 %4
}

; Function Attrs: nounwind uwtable
define dso_local signext i16 @get_typlen(i32 noundef %0) #0 {
  %2 = alloca i16, align 2
  %3 = alloca i32, align 4
  %4 = alloca ptr, align 8
  %5 = alloca ptr, align 8
  %6 = alloca i16, align 2
  %7 = alloca i32, align 4
  store i32 %0, ptr %3, align 4
  call void @llvm.lifetime.start.p0(i64 8, ptr %4) #7
  %8 = load i32, ptr %3, align 4
  %9 = call i64 @ObjectIdGetDatum(i32 noundef %8)
  %10 = call ptr @SearchSysCache1(i32 noundef 82, i64 noundef %9)
  store ptr %10, ptr %4, align 8
  %11 = load ptr, ptr %4, align 8
  %12 = icmp ne ptr %11, null
  br i1 %12, label %13, label %21

13:                                               ; preds = %1
  call void @llvm.lifetime.start.p0(i64 8, ptr %5) #7
  %14 = load ptr, ptr %4, align 8
  %15 = call ptr @GETSTRUCT(ptr noundef %14)
  store ptr %15, ptr %5, align 8
  call void @llvm.lifetime.start.p0(i64 2, ptr %6) #7
  %16 = load ptr, ptr %5, align 8
  %17 = getelementptr inbounds nuw %struct.FormData_pg_type, ptr %16, i32 0, i32 4
  %18 = load i16, ptr %17, align 4
  store i16 %18, ptr %6, align 2
  %19 = load ptr, ptr %4, align 8
  call void @ReleaseSysCache(ptr noundef %19)
  %20 = load i16, ptr %6, align 2
  store i16 %20, ptr %2, align 2
  store i32 1, ptr %7, align 4
  call void @llvm.lifetime.end.p0(i64 2, ptr %6) #7
  call void @llvm.lifetime.end.p0(i64 8, ptr %5) #7
  br label %22

21:                                               ; preds = %1
  store i16 0, ptr %2, align 2
  store i32 1, ptr %7, align 4
  br label %22

22:                                               ; preds = %21, %13
  call void @llvm.lifetime.end.p0(i64 8, ptr %4) #7
  %23 = load i16, ptr %2, align 2
  ret i16 %23
}

; Function Attrs: nounwind uwtable
define dso_local i32 @get_typavgwidth(i32 noundef %0, i32 noundef %1) #0 {
  %3 = alloca i32, align 4
  %4 = alloca i32, align 4
  %5 = alloca i32, align 4
  %6 = alloca i32, align 4
  %7 = alloca i32, align 4
  %8 = alloca i32, align 4
  store i32 %0, ptr %4, align 4
  store i32 %1, ptr %5, align 4
  call void @llvm.lifetime.start.p0(i64 4, ptr %6) #7
  %9 = load i32, ptr %4, align 4
  %10 = call signext i16 @get_typlen(i32 noundef %9)
  %11 = sext i16 %10 to i32
  store i32 %11, ptr %6, align 4
  call void @llvm.lifetime.start.p0(i64 4, ptr %7) #7
  %12 = load i32, ptr %6, align 4
  %13 = icmp sgt i32 %12, 0
  br i1 %13, label %14, label %16

14:                                               ; preds = %2
  %15 = load i32, ptr %6, align 4
  store i32 %15, ptr %3, align 4
  store i32 1, ptr %8, align 4
  br label %42

16:                                               ; preds = %2
  %17 = load i32, ptr %4, align 4
  %18 = load i32, ptr %5, align 4
  %19 = call i32 @type_maximum_size(i32 noundef %17, i32 noundef %18)
  store i32 %19, ptr %7, align 4
  %20 = load i32, ptr %7, align 4
  %21 = icmp sgt i32 %20, 0
  br i1 %21, label %22, label %41

22:                                               ; preds = %16
  %23 = load i32, ptr %4, align 4
  %24 = icmp eq i32 %23, 1042
  br i1 %24, label %25, label %27

25:                                               ; preds = %22
  %26 = load i32, ptr %7, align 4
  store i32 %26, ptr %3, align 4
  store i32 1, ptr %8, align 4
  br label %42

27:                                               ; preds = %22
  %28 = load i32, ptr %7, align 4
  %29 = icmp sle i32 %28, 32
  br i1 %29, label %30, label %32

30:                                               ; preds = %27
  %31 = load i32, ptr %7, align 4
  store i32 %31, ptr %3, align 4
  store i32 1, ptr %8, align 4
  br label %42

32:                                               ; preds = %27
  %33 = load i32, ptr %7, align 4
  %34 = icmp slt i32 %33, 1000
  br i1 %34, label %35, label %40

35:                                               ; preds = %32
  %36 = load i32, ptr %7, align 4
  %37 = sub i32 %36, 32
  %38 = sdiv i32 %37, 2
  %39 = add i32 32, %38
  store i32 %39, ptr %3, align 4
  store i32 1, ptr %8, align 4
  br label %42

40:                                               ; preds = %32
  store i32 516, ptr %3, align 4
  store i32 1, ptr %8, align 4
  br label %42

41:                                               ; preds = %16
  store i32 32, ptr %3, align 4
  store i32 1, ptr %8, align 4
  br label %42

42:                                               ; preds = %41, %40, %35, %30, %25, %14
  call void @llvm.lifetime.end.p0(i64 4, ptr %7) #7
  call void @llvm.lifetime.end.p0(i64 4, ptr %6) #7
  %43 = load i32, ptr %3, align 4
  ret i32 %43
}