; Function Attrs: nounwind uwtable
define dso_local range(i32 1, -2147483648) i32 @get_typavgwidth(i32 noundef %0, i32 noundef %1) local_unnamed_addr #0 {
  %3 = zext i32 %0 to i64
  %4 = tail call ptr @SearchSysCache1(i32 noundef 82, i64 noundef %3) #8
  %.not.i = icmp eq ptr %4, null
  br i1 %.not.i, label %get_typlen.exit.thread, label %get_typlen.exit

get_typlen.exit:                                  ; preds = %2
  %5 = getelementptr i8, ptr %4, i64 16
  %.val.i = load ptr, ptr %5, align 8
  %6 = getelementptr inbounds nuw i8, ptr %.val.i, i64 22
  %7 = load i8, ptr %6, align 2
  %8 = zext i8 %7 to i64
  %9 = getelementptr inbounds nuw i8, ptr %.val.i, i64 %8
  %10 = getelementptr inbounds nuw i8, ptr %9, i64 76
  %11 = load i16, ptr %10, align 4
  tail call void @ReleaseSysCache(ptr noundef nonnull %4) #8
  %12 = icmp sgt i16 %11, 0
  br i1 %12, label %13, label %get_typlen.exit.thread

13:                                               ; preds = %get_typlen.exit
  %14 = zext nneg i16 %11 to i32
  br label %26

get_typlen.exit.thread:                           ; preds = %2, %get_typlen.exit
  %15 = tail call i32 @type_maximum_size(i32 noundef %0, i32 noundef %1) #8
  %16 = icmp sgt i32 %15, 0
  br i1 %16, label %17, label %26

17:                                               ; preds = %get_typlen.exit.thread
  %18 = icmp eq i32 %0, 1042
  %19 = icmp samesign ult i32 %15, 33
  %or.cond = or i1 %18, %19
  br i1 %or.cond, label %26, label %20

20:                                               ; preds = %17
  %21 = icmp samesign ult i32 %15, 1000
  br i1 %21, label %22, label %26

22:                                               ; preds = %20
  %23 = add nsw i32 %15, -32
  %24 = lshr i32 %23, 1
  %25 = add nuw nsw i32 %24, 32
  br label %26

26:                                               ; preds = %get_typlen.exit.thread, %20, %17, %22, %13
  %.0 = phi i32 [ %14, %13 ], [ %25, %22 ], [ %15, %17 ], [ 516, %20 ], [ 32, %get_typlen.exit.thread ]
  ret i32 %.0
}